target datalayout = "e-m:e-p270:32:32-p271:32:32-p272:64:64-i64:64-i128:128-f80:128-n8:16:32:64-S128"
target triple = "x86_64-pc-linux-gnu"

%struct.block_writer = type { ptr, ptr, i64, ptr, i32, i32, i16, i32, i32, ptr, i32, i32, %struct.reftable_buf, %struct.reftable_buf, i32 }
%struct.reftable_buf = type { i64, i64, ptr }
%struct.z_stream_s = type { ptr, i32, i64, ptr, i32, i64, ptr, ptr, ptr, ptr, ptr, i32, i64, i64 }

@.str.1 = private unnamed_addr constant [27 x i8] c"size_t overflow: %lu * %lu\00", align 1

; Function Attrs: inlinehint nounwind uwtable
define internal i64 @st_mult(i64 noundef %0, i64 noundef %1) #6 {
  %3 = alloca i64, align 8
  %4 = alloca i64, align 8
  store i64 %0, ptr %3, align 8, !tbaa !33
  store i64 %1, ptr %4, align 8, !tbaa !33
  %5 = load i64, ptr %3, align 8, !tbaa !33
  %6 = icmp ne i64 %5, 0
  br i1 %6, label %7, label %15

7:                                                ; preds = %2
  %8 = load i64, ptr %4, align 8, !tbaa !33
  %9 = load i64, ptr %3, align 8, !tbaa !33
  %10 = udiv i64 -1, %9
  %11 = icmp ugt i64 %8, %10
  br i1 %11, label %12, label %15

12:                                               ; preds = %7
  %13 = load i64, ptr %3, align 8, !tbaa !33
  %14 = load i64, ptr %4, align 8, !tbaa !33
  call void (ptr, ...) @die(ptr noundef @.str.1, i64 noundef %13, i64 noundef %14) #12
  unreachable

15:                                               ; preds = %7, %2
  %16 = load i64, ptr %3, align 8, !tbaa !33
  %17 = load i64, ptr %4, align 8, !tbaa !33
  %18 = mul i64 %16, %17
  ret i64 %18
}

; Function Attrs: inlinehint nounwind uwtable
define internal ptr @reftable_alloc_grow(ptr noundef %0, i64 noundef %1, i64 noundef %2, ptr noundef %3) #6 {
  %5 = alloca ptr, align 8
  %6 = alloca ptr, align 8
  %7 = alloca i64, align 8
  %8 = alloca i64, align 8
  %9 = alloca ptr, align 8
  %10 = alloca ptr, align 8
  %11 = alloca i64, align 8
  %12 = alloca i32, align 4
  store ptr %0, ptr %6, align 8, !tbaa !58
  store i64 %1, ptr %7, align 8, !tbaa !33
  store i64 %2, ptr %8, align 8, !tbaa !33
  store ptr %3, ptr %9, align 8, !tbaa !59
  call void @llvm.lifetime.start.p0(i64 8, ptr %10) #10
  call void @llvm.lifetime.start.p0(i64 8, ptr %11) #10
  %13 = load ptr, ptr %9, align 8, !tbaa !59
  %14 = load i64, ptr %13, align 8, !tbaa !33
  %15 = mul i64 %14, 2
  %16 = add i64 %15, 1
  store i64 %16, ptr %11, align 8, !tbaa !33
  %17 = load i64, ptr %11, align 8, !tbaa !33
  %18 = load i64, ptr %7, align 8, !tbaa !33
  %19 = icmp ult i64 %17, %18
  br i1 %19, label %20, label %22

20:                                               ; preds = %4
  %21 = load i64, ptr %7, align 8, !tbaa !33
  store i64 %21, ptr %11, align 8, !tbaa !33
  br label %22

22:                                               ; preds = %20, %4
  %23 = load ptr, ptr %6, align 8, !tbaa !58
  %24 = load i64, ptr %8, align 8, !tbaa !33
  %25 = load i64, ptr %11, align 8, !tbaa !33
  %26 = call i64 @st_mult(i64 noundef %24, i64 noundef %25)
  %27 = call ptr @reftable_realloc(ptr noundef %23, i64 noundef %26)
  store ptr %27, ptr %10, align 8, !tbaa !58
  %28 = load ptr, ptr %10, align 8, !tbaa !58
  %29 = icmp ne ptr %28, null
  br i1 %29, label %32, label %30

30:                                               ; preds = %22
  %31 = load ptr, ptr %6, align 8, !tbaa !58
  store ptr %31, ptr %5, align 8
  store i32 1, ptr %12, align 4
  br label %36

32:                                               ; preds = %22
  %33 = load i64, ptr %11, align 8, !tbaa !33
  %34 = load ptr, ptr %9, align 8, !tbaa !59
  store i64 %33, ptr %34, align 8, !tbaa !33
  %35 = load ptr, ptr %10, align 8, !tbaa !58
  store ptr %35, ptr %5, align 8
  store i32 1, ptr %12, align 4
  br label %36

36:                                               ; preds = %32, %30
  call void @llvm.lifetime.end.p0(i64 8, ptr %11) #10
  call void @llvm.lifetime.end.p0(i64 8, ptr %10) #10
  %37 = load ptr, ptr %5, align 8
  ret ptr %37
}

; Function Attrs: nounwind uwtable
define dso_local zeroext i8 @block_writer_type(ptr noundef %0) #0 {
  %2 = alloca ptr, align 8
  store ptr %0, ptr %2, align 8, !tbaa !8
  %3 = load ptr, ptr %2, align 8, !tbaa !8
  %4 = getelementptr inbounds nuw %struct.block_writer, ptr %3, i32 0, i32 3
  %5 = load ptr, ptr %4, align 8, !tbaa !14
  %6 = load ptr, ptr %2, align 8, !tbaa !8
  %7 = getelementptr inbounds nuw %struct.block_writer, ptr %6, i32 0, i32 5
  %8 = load i32, ptr %7, align 4, !tbaa !23
  %9 = zext i32 %8 to i64
  %10 = getelementptr inbounds nuw i8, ptr %5, i64 %9
  %11 = load i8, ptr %10, align 1, !tbaa !11
  ret i8 %11
}

; Function Attrs: nounwind uwtable
define dso_local i32 @block_writer_finish(ptr noundef %0) #0 {
  %2 = alloca i32, align 4
  %3 = alloca ptr, align 8
  %4 = alloca i32, align 4
  %5 = alloca i32, align 4
  %6 = alloca i64, align 8
  %7 = alloca i64, align 8
  %8 = alloca i32, align 4
  %9 = alloca i32, align 4
  %10 = alloca i64, align 8
  store ptr %0, ptr %3, align 8, !tbaa !8
  call void @llvm.lifetime.start.p0(i64 4, ptr %4) #10
  store i32 0, ptr %4, align 4, !tbaa !4
  br label %11

11:                                               ; preds = %38, %1
  %12 = load i32, ptr %4, align 4, !tbaa !4
  %13 = load ptr, ptr %3, align 8, !tbaa !8
  %14 = getelementptr inbounds nuw %struct.block_writer, ptr %13, i32 0, i32 10
  %15 = load i32, ptr %14, align 8, !tbaa !27
  %16 = icmp ult i32 %12, %15
  br i1 %16, label %18, label %17

17:                                               ; preds = %11
  call void @llvm.lifetime.end.p0(i64 4, ptr %4) #10
  br label %41

18:                                               ; preds = %11
  %19 = load ptr, ptr %3, align 8, !tbaa !8
  %20 = getelementptr inbounds nuw %struct.block_writer, ptr %19, i32 0, i32 3
  %21 = load ptr, ptr %20, align 8, !tbaa !14
  %22 = load ptr, ptr %3, align 8, !tbaa !8
  %23 = getelementptr inbounds nuw %struct.block_writer, ptr %22, i32 0, i32 8
  %24 = load i32, ptr %23, align 8, !tbaa !24
  %25 = zext i32 %24 to i64
  %26 = getelementptr inbounds nuw i8, ptr %21, i64 %25
  %27 = load ptr, ptr %3, align 8, !tbaa !8
  %28 = getelementptr inbounds nuw %struct.block_writer, ptr %27, i32 0, i32 9
  %29 = load ptr, ptr %28, align 8, !tbaa !44
  %30 = load i32, ptr %4, align 4, !tbaa !4
  %31 = zext i32 %30 to i64
  %32 = getelementptr inbounds nuw i32, ptr %29, i64 %31
  %33 = load i32, ptr %32, align 4, !tbaa !4
  call void @put_be24(ptr noundef %26, i32 noundef %33)
  %34 = load ptr, ptr %3, align 8, !tbaa !8
  %35 = getelementptr inbounds nuw %struct.block_writer, ptr %34, i32 0, i32 8
  %36 = load i32, ptr %35, align 8, !tbaa !24
  %37 = add i32 %36, 3
  store i32 %37, ptr %35, align 8, !tbaa !24
  br label %38

38:                                               ; preds = %18
  %39 = load i32, ptr %4, align 4, !tbaa !4
  %40 = add i32 %39, 1
  store i32 %40, ptr %4, align 4, !tbaa !4
  br label %11, !llvm.loop !47

41:                                               ; preds = %17
  %42 = load ptr, ptr %3, align 8, !tbaa !8
  %43 = getelementptr inbounds nuw %struct.block_writer, ptr %42, i32 0, i32 3
  %44 = load ptr, ptr %43, align 8, !tbaa !14
  %45 = load ptr, ptr %3, align 8, !tbaa !8
  %46 = getelementptr inbounds nuw %struct.block_writer, ptr %45, i32 0, i32 8
  %47 = load i32, ptr %46, align 8, !tbaa !24
  %48 = zext i32 %47 to i64
  %49 = getelementptr inbounds nuw i8, ptr %44, i64 %48
  %50 = load ptr, ptr %3, align 8, !tbaa !8
  %51 = getelementptr inbounds nuw %struct.block_writer, ptr %50, i32 0, i32 10
  %52 = load i32, ptr %51, align 8, !tbaa !27
  %53 = trunc i32 %52 to i16
  call void @put_be16(ptr noundef %49, i16 noundef zeroext %53)
  %54 = load ptr, ptr %3, align 8, !tbaa !8
  %55 = getelementptr inbounds nuw %struct.block_writer, ptr %54, i32 0, i32 8
  %56 = load i32, ptr %55, align 8, !tbaa !24
  %57 = add i32 %56, 2
  store i32 %57, ptr %55, align 8, !tbaa !24
  %58 = load ptr, ptr %3, align 8, !tbaa !8
  %59 = getelementptr inbounds nuw %struct.block_writer, ptr %58, i32 0, i32 3
  %60 = load ptr, ptr %59, align 8, !tbaa !14
  %61 = getelementptr inbounds i8, ptr %60, i64 1
  %62 = load ptr, ptr %3, align 8, !tbaa !8
  %63 = getelementptr inbounds nuw %struct.block_writer, ptr %62, i32 0, i32 5
  %64 = load i32, ptr %63, align 4, !tbaa !23
  %65 = zext i32 %64 to i64
  %66 = getelementptr inbounds nuw i8, ptr %61, i64 %65
  %67 = load ptr, ptr %3, align 8, !tbaa !8
  %68 = getelementptr inbounds nuw %struct.block_writer, ptr %67, i32 0, i32 8
  %69 = load i32, ptr %68, align 8, !tbaa !24
  call void @put_be24(ptr noundef %66, i32 noundef %69)
  %70 = load ptr, ptr %3, align 8, !tbaa !8
  %71 = call zeroext i8 @block_writer_type(ptr noundef %70)
  %72 = zext i8 %71 to i32
  %73 = icmp eq i32 %72, 103
  br i1 %73, label %74, label %206

74:                                               ; preds = %41
  call void @llvm.lifetime.start.p0(i64 4, ptr %5) #10
  %75 = load ptr, ptr %3, align 8, !tbaa !8
  %76 = getelementptr inbounds nuw %struct.block_writer, ptr %75, i32 0, i32 5
  %77 = load i32, ptr %76, align 4, !tbaa !23
  %78 = add i32 4, %77
  store i32 %78, ptr %5, align 4, !tbaa !4
  call void @llvm.lifetime.start.p0(i64 8, ptr %6) #10
  %79 = load ptr, ptr %3, align 8, !tbaa !8
  %80 = getelementptr inbounds nuw %struct.block_writer, ptr %79, i32 0, i32 8
  %81 = load i32, ptr %80, align 8, !tbaa !24
  %82 = load i32, ptr %5, align 4, !tbaa !4
  %83 = sub i32 %81, %82
  %84 = zext i32 %83 to i64
  store i64 %84, ptr %6, align 8, !tbaa !33
  call void @llvm.lifetime.start.p0(i64 8, ptr %7) #10
  call void @llvm.lifetime.start.p0(i64 4, ptr %8) #10
  %85 = load ptr, ptr %3, align 8, !tbaa !8
  %86 = getelementptr inbounds nuw %struct.block_writer, ptr %85, i32 0, i32 0
  %87 = load ptr, ptr %86, align 8, !tbaa !29
  %88 = call i32 @deflateReset(ptr noundef %87)
  store i32 %88, ptr %8, align 4, !tbaa !4
  %89 = load i32, ptr %8, align 4, !tbaa !4
  %90 = icmp ne i32 %89, 0
  br i1 %90, label %91, label %92

91:                                               ; preds = %74
  store i32 -7, ptr %2, align 4
  store i32 1, ptr %9, align 4
  br label %203

92:                                               ; preds = %74
  %93 = load ptr, ptr %3, align 8, !tbaa !8
  %94 = getelementptr inbounds nuw %struct.block_writer, ptr %93, i32 0, i32 0
  %95 = load ptr, ptr %94, align 8, !tbaa !29
  %96 = load i64, ptr %6, align 8, !tbaa !33
  %97 = call i64 @deflateBound(ptr noundef %95, i64 noundef %96)
  store i64 %97, ptr %7, align 8, !tbaa !33
  br label %98

98:                                               ; preds = %92
  call void @llvm.lifetime.start.p0(i64 8, ptr %10) #10
  %99 = load ptr, ptr %3, align 8, !tbaa !8
  %100 = getelementptr inbounds nuw %struct.block_writer, ptr %99, i32 0, i32 2
  %101 = load i64, ptr %100, align 8, !tbaa !49
  store i64 %101, ptr %10, align 8, !tbaa !33
  %102 = load i64, ptr %7, align 8, !tbaa !33
  %103 = load i64, ptr %10, align 8, !tbaa !33
  %104 = icmp ugt i64 %102, %103
  br i1 %104, label %105, label %127

105:                                              ; preds = %98
  %106 = load ptr, ptr %3, align 8, !tbaa !8
  %107 = getelementptr inbounds nuw %struct.block_writer, ptr %106, i32 0, i32 1
  %108 = load ptr, ptr %107, align 8, !tbaa !50
  %109 = load i64, ptr %7, align 8, !tbaa !33
  %110 = call ptr @reftable_alloc_grow(ptr noundef %108, i64 noundef %109, i64 noundef 1, ptr noundef %10)
  %111 = load ptr, ptr %3, align 8, !tbaa !8
  %112 = getelementptr inbounds nuw %struct.block_writer, ptr %111, i32 0, i32 1
  store ptr %110, ptr %112, align 8, !tbaa !50
  %113 = load i64, ptr %7, align 8, !tbaa !33
  %114 = load i64, ptr %10, align 8, !tbaa !33
  %115 = icmp ugt i64 %113, %114
  br i1 %115, label %116, label %127

116:                                              ; preds = %105
  br label %117

117:                                              ; preds = %116
  %118 = load ptr, ptr %3, align 8, !tbaa !8
  %119 = getelementptr inbounds nuw %struct.block_writer, ptr %118, i32 0, i32 1
  %120 = load ptr, ptr %119, align 8, !tbaa !50
  call void @reftable_free(ptr noundef %120)
  %121 = load ptr, ptr %3, align 8, !tbaa !8
  %122 = getelementptr inbounds nuw %struct.block_writer, ptr %121, i32 0, i32 1
  store ptr null, ptr %122, align 8, !tbaa !50
  br label %123

123:                                              ; preds = %117
  br label %124

124:                                              ; preds = %123
  %125 = load ptr, ptr %3, align 8, !tbaa !8
  %126 = getelementptr inbounds nuw %struct.block_writer, ptr %125, i32 0, i32 2
  store i64 0, ptr %126, align 8, !tbaa !49
  br label %131

127:                                              ; preds = %105, %98
  %128 = load i64, ptr %10, align 8, !tbaa !33
  %129 = load ptr, ptr %3, align 8, !tbaa !8
  %130 = getelementptr inbounds nuw %struct.block_writer, ptr %129, i32 0, i32 2
  store i64 %128, ptr %130, align 8, !tbaa !49
  br label %131

131:                                              ; preds = %127, %124
  call void @llvm.lifetime.end.p0(i64 8, ptr %10) #10
  br label %132

132:                                              ; preds = %131
  br label %133

133:                                              ; preds = %132
  %134 = load ptr, ptr %3, align 8, !tbaa !8
  %135 = getelementptr inbounds nuw %struct.block_writer, ptr %134, i32 0, i32 1
  %136 = load ptr, ptr %135, align 8, !tbaa !50
  %137 = icmp ne ptr %136, null
  br i1 %137, label %140, label %138

138:                                              ; preds = %133
  store i32 -13, ptr %8, align 4, !tbaa !4
  %139 = load i32, ptr %8, align 4, !tbaa !4
  store i32 %139, ptr %2, align 4
  store i32 1, ptr %9, align 4
  br label %203

140:                                              ; preds = %133
  %141 = load ptr, ptr %3, align 8, !tbaa !8
  %142 = getelementptr inbounds nuw %struct.block_writer, ptr %141, i32 0, i32 1
  %143 = load ptr, ptr %142, align 8, !tbaa !50
  %144 = load ptr, ptr %3, align 8, !tbaa !8
  %145 = getelementptr inbounds nuw %struct.block_writer, ptr %144, i32 0, i32 0
  %146 = load ptr, ptr %145, align 8, !tbaa !29
  %147 = getelementptr inbounds nuw %struct.z_stream_s, ptr %146, i32 0, i32 3
  store ptr %143, ptr %147, align 8, !tbaa !51
  %148 = load i64, ptr %7, align 8, !tbaa !33
  %149 = trunc i64 %148 to i32
  %150 = load ptr, ptr %3, align 8, !tbaa !8
  %151 = getelementptr inbounds nuw %struct.block_writer, ptr %150, i32 0, i32 0
  %152 = load ptr, ptr %151, align 8, !tbaa !29
  %153 = getelementptr inbounds nuw %struct.z_stream_s, ptr %152, i32 0, i32 4
  store i32 %149, ptr %153, align 8, !tbaa !54
  %154 = load ptr, ptr %3, align 8, !tbaa !8
  %155 = getelementptr inbounds nuw %struct.block_writer, ptr %154, i32 0, i32 3
  %156 = load ptr, ptr %155, align 8, !tbaa !14
  %157 = load i32, ptr %5, align 4, !tbaa !4
  %158 = sext i32 %157 to i64
  %159 = getelementptr inbounds i8, ptr %156, i64 %158
  %160 = load ptr, ptr %3, align 8, !tbaa !8
  %161 = getelementptr inbounds nuw %struct.block_writer, ptr %160, i32 0, i32 0
  %162 = load ptr, ptr %161, align 8, !tbaa !29
  %163 = getelementptr inbounds nuw %struct.z_stream_s, ptr %162, i32 0, i32 0
  store ptr %159, ptr %163, align 8, !tbaa !55
  %164 = load i64, ptr %6, align 8, !tbaa !33
  %165 = trunc i64 %164 to i32
  %166 = load ptr, ptr %3, align 8, !tbaa !8
  %167 = getelementptr inbounds nuw %struct.block_writer, ptr %166, i32 0, i32 0
  %168 = load ptr, ptr %167, align 8, !tbaa !29
  %169 = getelementptr inbounds nuw %struct.z_stream_s, ptr %168, i32 0, i32 1
  store i32 %165, ptr %169, align 8, !tbaa !56
  %170 = load ptr, ptr %3, align 8, !tbaa !8
  %171 = getelementptr inbounds nuw %struct.block_writer, ptr %170, i32 0, i32 0
  %172 = load ptr, ptr %171, align 8, !tbaa !29
  %173 = call i32 @deflate(ptr noundef %172, i32 noundef 4)
  store i32 %173, ptr %8, align 4, !tbaa !4
  %174 = load i32, ptr %8, align 4, !tbaa !4
  %175 = icmp ne i32 %174, 1
  br i1 %175, label %176, label %177

176:                                              ; preds = %140
  store i32 -7, ptr %2, align 4
  store i32 1, ptr %9, align 4
  br label %203

177:                                              ; preds = %140
  %178 = load ptr, ptr %3, align 8, !tbaa !8
  %179 = getelementptr inbounds nuw %struct.block_writer, ptr %178, i32 0, i32 3
  %180 = load ptr, ptr %179, align 8, !tbaa !14
  %181 = load i32, ptr %5, align 4, !tbaa !4
  %182 = sext i32 %181 to i64
  %183 = getelementptr inbounds i8, ptr %180, i64 %182
  %184 = load ptr, ptr %3, align 8, !tbaa !8
  %185 = getelementptr inbounds nuw %struct.block_writer, ptr %184, i32 0, i32 1
  %186 = load ptr, ptr %185, align 8, !tbaa !50
  %187 = load ptr, ptr %3, align 8, !tbaa !8
  %188 = getelementptr inbounds nuw %struct.block_writer, ptr %187, i32 0, i32 0
  %189 = load ptr, ptr %188, align 8, !tbaa !29
  %190 = getelementptr inbounds nuw %struct.z_stream_s, ptr %189, i32 0, i32 5
  %191 = load i64, ptr %190, align 8, !tbaa !57
  call void @llvm.memcpy.p0.p0.i64(ptr align 1 %183, ptr align 1 %186, i64 %191, i1 false)
  %192 = load ptr, ptr %3, align 8, !tbaa !8
  %193 = getelementptr inbounds nuw %struct.block_writer, ptr %192, i32 0, i32 0
  %194 = load ptr, ptr %193, align 8, !tbaa !29
  %195 = getelementptr inbounds nuw %struct.z_stream_s, ptr %194, i32 0, i32 5
  %196 = load i64, ptr %195, align 8, !tbaa !57
  %197 = load i32, ptr %5, align 4, !tbaa !4
  %198 = sext i32 %197 to i64
  %199 = add i64 %196, %198
  %200 = trunc i64 %199 to i32
  %201 = load ptr, ptr %3, align 8, !tbaa !8
  %202 = getelementptr inbounds nuw %struct.block_writer, ptr %201, i32 0, i32 8
  store i32 %200, ptr %202, align 8, !tbaa !24
  store i32 0, ptr %9, align 4
  br label %203

203:                                              ; preds = %177, %176, %138, %91
  call void @llvm.lifetime.end.p0(i64 4, ptr %8) #10
  call void @llvm.lifetime.end.p0(i64 8, ptr %7) #10
  call void @llvm.lifetime.end.p0(i64 8, ptr %6) #10
  call void @llvm.lifetime.end.p0(i64 4, ptr %5) #10
  %204 = load i32, ptr %9, align 4
  switch i32 %204, label %212 [
    i32 0, label %205
    i32 1, label %210
  ]

205:                                              ; preds = %203
  br label %206

206:                                              ; preds = %205, %41
  %207 = load ptr, ptr %3, align 8, !tbaa !8
  %208 = getelementptr inbounds nuw %struct.block_writer, ptr %207, i32 0, i32 8
  %209 = load i32, ptr %208, align 8, !tbaa !24
  store i32 %209, ptr %2, align 4
  br label %210

210:                                              ; preds = %206, %203
  %211 = load i32, ptr %2, align 4
  ret i32 %211

212:                                              ; preds = %203
  unreachable
}