; Function Attrs: nounwind uwtable
define dso_local i32 @block_writer_finish(ptr noundef captures(none) %0) local_unnamed_addr #2 {
  %2 = getelementptr inbounds nuw i8, ptr %0, i64 64
  %3 = load i32, ptr %2, align 8, !tbaa !23
  %.not73 = icmp eq i32 %3, 0
  br i1 %.not73, label %.._crit_edge_crit_edge, label %.lr.ph

.._crit_edge_crit_edge:                           ; preds = %1
  %.phi.trans.insert = getelementptr inbounds nuw i8, ptr %0, i64 48
  %.pre76 = load i32, ptr %.phi.trans.insert, align 8, !tbaa !20
  br label %._crit_edge

.lr.ph:                                           ; preds = %1
  %4 = getelementptr inbounds nuw i8, ptr %0, i64 24
  %5 = getelementptr inbounds nuw i8, ptr %0, i64 48
  %6 = getelementptr inbounds nuw i8, ptr %0, i64 56
  %.pre = load i32, ptr %5, align 8, !tbaa !20
  br label %28

._crit_edge.loopexit:                             ; preds = %28
  %7 = trunc i32 %38 to i16
  br label %._crit_edge

._crit_edge:                                      ; preds = %.._crit_edge_crit_edge, %._crit_edge.loopexit
  %8 = phi i32 [ %.pre76, %.._crit_edge_crit_edge ], [ %37, %._crit_edge.loopexit ]
  %.lcssa = phi i16 [ 0, %.._crit_edge_crit_edge ], [ %7, %._crit_edge.loopexit ]
  %9 = getelementptr inbounds nuw i8, ptr %0, i64 24
  %10 = load ptr, ptr %9, align 8, !tbaa !4
  %11 = getelementptr inbounds nuw i8, ptr %0, i64 48
  %12 = zext i32 %8 to i64
  %13 = getelementptr inbounds nuw i8, ptr %10, i64 %12
  tail call void @put_be16(ptr noundef %13, i16 noundef zeroext %.lcssa) #11
  %14 = load i32, ptr %11, align 8, !tbaa !20
  %15 = add i32 %14, 2
  store i32 %15, ptr %11, align 8, !tbaa !20
  %16 = load ptr, ptr %9, align 8, !tbaa !4
  %17 = getelementptr inbounds nuw i8, ptr %16, i64 1
  %18 = getelementptr inbounds nuw i8, ptr %0, i64 36
  %19 = load i32, ptr %18, align 4, !tbaa !18
  %20 = zext i32 %19 to i64
  %21 = getelementptr inbounds nuw i8, ptr %17, i64 %20
  tail call void @put_be24(ptr noundef nonnull %21, i32 noundef %15) #11
  %22 = load ptr, ptr %9, align 8, !tbaa !4
  %23 = load i32, ptr %18, align 4, !tbaa !18
  %24 = zext i32 %23 to i64
  %25 = getelementptr inbounds nuw i8, ptr %22, i64 %24
  %26 = load i8, ptr %25, align 1, !tbaa !19
  %27 = icmp eq i8 %26, 103
  %.pre80 = load i32, ptr %11, align 8, !tbaa !20
  br i1 %27, label %41, label %.thread

28:                                               ; preds = %.lr.ph, %28
  %29 = phi i32 [ %.pre, %.lr.ph ], [ %37, %28 ]
  %indvars.iv = phi i64 [ 0, %.lr.ph ], [ %indvars.iv.next, %28 ]
  %30 = load ptr, ptr %4, align 8, !tbaa !4
  %31 = zext i32 %29 to i64
  %32 = getelementptr inbounds nuw i8, ptr %30, i64 %31
  %33 = load ptr, ptr %6, align 8, !tbaa !32
  %34 = getelementptr inbounds nuw i32, ptr %33, i64 %indvars.iv
  %35 = load i32, ptr %34, align 4, !tbaa !29
  tail call void @put_be24(ptr noundef %32, i32 noundef %35) #11
  %36 = load i32, ptr %5, align 8, !tbaa !20
  %37 = add i32 %36, 3
  store i32 %37, ptr %5, align 8, !tbaa !20
  %indvars.iv.next = add nuw nsw i64 %indvars.iv, 1
  %38 = load i32, ptr %2, align 8, !tbaa !23
  %39 = zext i32 %38 to i64
  %40 = icmp samesign ult i64 %indvars.iv.next, %39
  br i1 %40, label %28, label %._crit_edge.loopexit, !llvm.loop !35

41:                                               ; preds = %._crit_edge
  %42 = add i32 %23, 4
  %43 = sub i32 %.pre80, %42
  %44 = load ptr, ptr %0, align 8, !tbaa !25
  %45 = tail call i32 @deflateReset(ptr noundef %44) #11
  %.not = icmp eq i32 %45, 0
  br i1 %.not, label %46, label %.thread

46:                                               ; preds = %41
  %47 = zext i32 %43 to i64
  %48 = load ptr, ptr %0, align 8, !tbaa !25
  %49 = tail call i64 @deflateBound(ptr noundef %48, i64 noundef %47) #11
  %50 = getelementptr inbounds nuw i8, ptr %0, i64 16
  %51 = load i64, ptr %50, align 8, !tbaa !37
  %52 = icmp ugt i64 %49, %51
  %53 = getelementptr inbounds nuw i8, ptr %0, i64 8
  %54 = load ptr, ptr %53, align 8, !tbaa !38
  br i1 %52, label %st_mult.exit.i, label %58

st_mult.exit.i:                                   ; preds = %46
  %55 = shl i64 %51, 1
  %56 = or disjoint i64 %55, 1
  %spec.select.i = tail call i64 @llvm.umax.i64(i64 %56, i64 %49)
  %57 = tail call ptr @reftable_realloc(ptr noundef %54, i64 noundef %spec.select.i) #11
  %.not.i = icmp eq ptr %57, null
  br i1 %.not.i, label %.thread81, label %.thread84

.thread84:                                        ; preds = %st_mult.exit.i
  store ptr %57, ptr %53, align 8, !tbaa !38
  store i64 %spec.select.i, ptr %50, align 8, !tbaa !37
  br label %59

.thread81:                                        ; preds = %st_mult.exit.i
  store ptr %54, ptr %53, align 8, !tbaa !38
  tail call void @reftable_free(ptr noundef %54) #11
  tail call void @llvm.memset.p0.i64(ptr noundef nonnull align 8 dereferenceable(16) %53, i8 0, i64 16, i1 false)
  br label %.thread

58:                                               ; preds = %46
  %.not60 = icmp eq ptr %54, null
  br i1 %.not60, label %.thread, label %59

59:                                               ; preds = %.thread84, %58
  %60 = phi ptr [ %57, %.thread84 ], [ %54, %58 ]
  %61 = load ptr, ptr %0, align 8, !tbaa !25
  %62 = getelementptr inbounds nuw i8, ptr %61, i64 24
  store ptr %60, ptr %62, align 8, !tbaa !39
  %63 = trunc i64 %49 to i32
  %64 = getelementptr inbounds nuw i8, ptr %61, i64 32
  store i32 %63, ptr %64, align 8, !tbaa !42
  %65 = load ptr, ptr %9, align 8, !tbaa !4
  %66 = sext i32 %42 to i64
  %67 = getelementptr inbounds i8, ptr %65, i64 %66
  store ptr %67, ptr %61, align 8, !tbaa !43
  %68 = getelementptr inbounds nuw i8, ptr %61, i64 8
  store i32 %43, ptr %68, align 8, !tbaa !44
  %69 = tail call i32 @deflate(ptr noundef nonnull %61, i32 noundef 4) #11
  %.not61 = icmp eq i32 %69, 1
  br i1 %.not61, label %70, label %.thread

70:                                               ; preds = %59
  %71 = getelementptr inbounds nuw i8, ptr %0, i64 8
  %72 = load ptr, ptr %9, align 8, !tbaa !4
  %73 = getelementptr inbounds i8, ptr %72, i64 %66
  %74 = load ptr, ptr %71, align 8, !tbaa !38
  %75 = load ptr, ptr %0, align 8, !tbaa !25
  %76 = getelementptr inbounds nuw i8, ptr %75, i64 40
  %77 = load i64, ptr %76, align 8, !tbaa !45
  tail call void @llvm.memcpy.p0.p0.i64(ptr align 1 %73, ptr align 1 %74, i64 %77, i1 false)
  %78 = load ptr, ptr %0, align 8, !tbaa !25
  %79 = getelementptr inbounds nuw i8, ptr %78, i64 40
  %80 = load i64, ptr %79, align 8, !tbaa !45
  %81 = trunc i64 %80 to i32
  %82 = add i32 %42, %81
  store i32 %82, ptr %11, align 8, !tbaa !20
  br label %.thread

.thread:                                          ; preds = %._crit_edge, %70, %.thread81, %59, %58, %41
  %.1 = phi i32 [ -7, %59 ], [ -13, %58 ], [ -7, %41 ], [ -13, %.thread81 ], [ %82, %70 ], [ %.pre80, %._crit_edge ]
  ret i32 %.1
}